; Function Attrs: mustprogress null_pointer_is_valid sspstrong uwtable
define void @_ZN13IOGraphDialog13scheduleRetapEb(ptr noundef align 8 dereferenceable_or_null(384) initializes((346, 347)) %0, i1 noundef zeroext %1) local_unnamed_addr #2 align 2 {
  %3 = getelementptr inbounds nuw i8, ptr %0, i64 346
  store i8 1, ptr %3, align 2
  br i1 %1, label %4, label %5

4:                                                ; preds = %2
  tail call void @_ZN13IOGraphDialog16updateStatisticsEv(ptr noundef align 8 dereferenceable_or_null(384) %0)
  br label %5

5:                                                ; preds = %4, %2
  ret void
}